target datalayout = "e-m:e-p270:32:32-p271:32:32-p272:64:64-i64:64-i128:128-f80:128-n8:16:32:64-S128"
target triple = "x86_64-unknown-linux-gnu"

%struct.ChardevCommon = type { ptr, i8, i8 }

@.str.59 = private unnamed_addr constant [8 x i8] c"logfile\00", align 1
@.str.60 = private unnamed_addr constant [10 x i8] c"logappend\00", align 1

; Function Attrs: nounwind sspstrong uwtable
define dso_local void @qemu_chr_parse_common(ptr noundef %opts, ptr noundef %backend) #0 {
entry:
  %opts.addr = alloca ptr, align 8
  %backend.addr = alloca ptr, align 8
  %logfile = alloca ptr, align 8
  store ptr %opts, ptr %opts.addr, align 8
  store ptr %backend, ptr %backend.addr, align 8
  %0 = load ptr, ptr %opts.addr, align 8
  %call = call ptr @qemu_opt_get(ptr noundef %0, ptr noundef @.str.59)
  store ptr %call, ptr %logfile, align 8
  %1 = load ptr, ptr %logfile, align 8
  %call1 = call noalias ptr @g_strdup(ptr noundef %1)
  %2 = load ptr, ptr %backend.addr, align 8
  %logfile2 = getelementptr inbounds %struct.ChardevCommon, ptr %2, i32 0, i32 0
  store ptr %call1, ptr %logfile2, align 8
  %3 = load ptr, ptr %backend.addr, align 8
  %has_logappend = getelementptr inbounds %struct.ChardevCommon, ptr %3, i32 0, i32 1
  store i8 1, ptr %has_logappend, align 8
  %4 = load ptr, ptr %opts.addr, align 8
  %call3 = call zeroext i1 @qemu_opt_get_bool(ptr noundef %4, ptr noundef @.str.60, i1 noundef zeroext false)
  %5 = load ptr, ptr %backend.addr, align 8
  %logappend = getelementptr inbounds %struct.ChardevCommon, ptr %5, i32 0, i32 2
  %frombool = zext i1 %call3 to i8
  store i8 %frombool, ptr %logappend, align 1
  ret void
}