; Function Attrs: nounwind sspstrong uwtable
define dso_local void @qemu_chr_parse_common(ptr noundef %opts, ptr noundef writeonly captures(none) initializes((0, 10)) %backend) local_unnamed_addr #0 {
entry:
  %call = tail call ptr @qemu_opt_get(ptr noundef %opts, ptr noundef nonnull @.str.59) #13
  %call1 = tail call noalias ptr @g_strdup(ptr noundef %call) #13
  store ptr %call1, ptr %backend, align 8
  %has_logappend = getelementptr inbounds nuw i8, ptr %backend, i64 8
  store i8 1, ptr %has_logappend, align 8
  %call3 = tail call zeroext i1 @qemu_opt_get_bool(ptr noundef %opts, ptr noundef nonnull @.str.60, i1 noundef zeroext false) #13
  %logappend = getelementptr inbounds nuw i8, ptr %backend, i64 9
  %frombool = zext i1 %call3 to i8
  store i8 %frombool, ptr %logappend, align 1
  ret void
}